#include <math.h>
#include <stdio.h>
#include <stdlib.h>
#include <string.h>

int main()

{	int i,j,n,max=0;
	int sum[500]={0};
	char c[500];
	char d[500][500];
	char kongbai[500]={'0'};
	scanf("%d",&n);
	scanf("%s",c);
	for(i=0;i<strlen(c)-n+1;i++){
		for(j=0;j<n;j++){
			d[i][j]=c[i+j];
		}
	}
	for(i=0;i<strlen(c)-n+1;i++){
		d[i][n]='\0';
	}
	for(i=0;i<strlen(c)-n+1;i++){
		for(j=i;j<strlen(c)-n+1;j++){
			if(strcmp(d[i],d[j])==0){
				sum[i]++;
			}
		}
	}
	for(i=0;i<strlen(c)-n+1;i++){
		if(sum[i]>=max){
			max=sum[i];
		}
	}
	if(max==1){
		printf("NO");
	}
	else{
		printf("%d\n",max);
		for(i=0;i<strlen(c)-n+1;i++){
			if(sum[i]==max){
				puts(d[i]);
			}
		}
	}
printf("\n");
	return 0;
}

